target datalayout = "e-m:e-p270:32:32-p271:32:32-p272:64:64-i64:64-i128:128-f80:128-n8:16:32:64-S128"
target triple = "x86_64-pc-linux-gnu"

%struct.Kit_Node_t_ = type { %struct.Kit_Edge_t_, %struct.Kit_Edge_t_, %union.anon, i32 }
%struct.Kit_Edge_t_ = type { i32 }
%union.anon = type { ptr }
%struct.Kit_Graph_t_ = type { i32, i32, i32, i32, ptr, %struct.Kit_Edge_t_ }
%struct.If_Man_t_ = type { ptr, ptr, ptr, ptr, ptr, ptr, ptr, ptr, [5 x i32], i32, float, float, float, float, i32, float, i32, i32, [4 x ptr], ptr, i32, i32, i32, ptr, [3 x [32 x i32]], i32, i32, i32, ptr, ptr, ptr, ptr, ptr, ptr, ptr, i32, i32, i32, [16 x i32], i32, i32, i32, i32, ptr, ptr, ptr, ptr, ptr, i32, i32, [32 x i32], [32 x i32], i32, i32, i32, i32, ptr, [16 x ptr], [16 x ptr], [16 x ptr], [16 x ptr], [16 x ptr], [16 x ptr], [16 x ptr], ptr, ptr, ptr, ptr, [32 x i8], i32, i32, i32, [6 x i64], [2 x i32], [2 x i32], ptr, [15 x i32], ptr, ptr, ptr, [16 x i32], ptr, ptr, ptr, ptr, [2 x i32], [2 x i32], [2 x ptr], ptr }
%struct.Lpk_Man_t_ = type { ptr, ptr, ptr, i32, i32, i32, i32, [10000 x %struct.Lpk_Cut_t_], [10000 x i32], ptr, ptr, ptr, ptr, i32, i32, i32, [100 x i32], [100 x i32], ptr, ptr, ptr, ptr, ptr, ptr, ptr, [32 x i32], [5 x [16 x ptr]], [8 x ptr], ptr, i32, i32, i32, i32, i32, i32, i32, i32, i32, i32, i32, i32, i32, [17 x i32], i64, i64, i64, i64, i64, i64, i64, i64, i64, i64, i64, i64, i64 }
%struct.Lpk_Cut_t_ = type { i32, [2 x i32], float, i32, [100 x i32], [100 x i32] }

; Function Attrs: inlinehint nounwind uwtable
define internal i32 @If_IsComplement(ptr noundef %0) #2 {
  %2 = alloca ptr, align 8
  store ptr %0, ptr %2, align 8, !tbaa !19
  %3 = load ptr, ptr %2, align 8, !tbaa !19
  %4 = ptrtoint ptr %3 to i64
  %5 = and i64 %4, 1
  %6 = trunc i64 %5 to i32
  ret i32 %6
}

; Function Attrs: inlinehint nounwind uwtable
define internal ptr @If_Regular(ptr noundef %0) #2 {
  %2 = alloca ptr, align 8
  store ptr %0, ptr %2, align 8, !tbaa !19
  %3 = load ptr, ptr %2, align 8, !tbaa !19
  %4 = ptrtoint ptr %3 to i64
  %5 = and i64 %4, -2
  %6 = inttoptr i64 %5 to ptr
  ret ptr %6
}

; Function Attrs: inlinehint nounwind uwtable
define internal ptr @Kit_GraphVar(ptr noundef %0) #2 {
  %2 = alloca ptr, align 8
  store ptr %0, ptr %2, align 8, !tbaa !8
  %3 = load ptr, ptr %2, align 8, !tbaa !8
  %4 = load ptr, ptr %2, align 8, !tbaa !8
  %5 = getelementptr inbounds nuw %struct.Kit_Graph_t_, ptr %4, i32 0, i32 5
  %6 = load i32, ptr %5, align 8
  %7 = lshr i32 %6, 1
  %8 = and i32 %7, 1073741823
  %9 = call ptr @Kit_GraphNode(ptr noundef %3, i32 noundef %8)
  ret ptr %9
}

; Function Attrs: inlinehint nounwind uwtable
define internal i32 @Kit_GraphIsVar(ptr noundef %0) #2 {
  %2 = alloca ptr, align 8
  store ptr %0, ptr %2, align 8, !tbaa !8
  %3 = load ptr, ptr %2, align 8, !tbaa !8
  %4 = getelementptr inbounds nuw %struct.Kit_Graph_t_, ptr %3, i32 0, i32 5
  %5 = load i32, ptr %4, align 8
  %6 = lshr i32 %5, 1
  %7 = and i32 %6, 1073741823
  %8 = load ptr, ptr %2, align 8, !tbaa !8
  %9 = getelementptr inbounds nuw %struct.Kit_Graph_t_, ptr %8, i32 0, i32 1
  %10 = load i32, ptr %9, align 4, !tbaa !13
  %11 = icmp ult i32 %7, %10
  %12 = zext i1 %11 to i32
  ret i32 %12
}

; Function Attrs: inlinehint nounwind uwtable
define internal ptr @If_ManConst1(ptr noundef %0) #2 {
  %2 = alloca ptr, align 8
  store ptr %0, ptr %2, align 8, !tbaa !3
  %3 = load ptr, ptr %2, align 8, !tbaa !3
  %4 = getelementptr inbounds nuw %struct.If_Man_t_, ptr %3, i32 0, i32 2
  %5 = load ptr, ptr %4, align 8, !tbaa !24
  ret ptr %5
}

; Function Attrs: inlinehint nounwind uwtable
define internal i32 @Kit_GraphIsConst(ptr noundef %0) #2 {
  %2 = alloca ptr, align 8
  store ptr %0, ptr %2, align 8, !tbaa !8
  %3 = load ptr, ptr %2, align 8, !tbaa !8
  %4 = getelementptr inbounds nuw %struct.Kit_Graph_t_, ptr %3, i32 0, i32 0
  %5 = load i32, ptr %4, align 8, !tbaa !23
  ret i32 %5
}

; Function Attrs: inlinehint nounwind uwtable
define internal ptr @If_NotCond(ptr noundef %0, i32 noundef %1) #2 {
  %3 = alloca ptr, align 8
  %4 = alloca i32, align 4
  store ptr %0, ptr %3, align 8, !tbaa !19
  store i32 %1, ptr %4, align 4, !tbaa !17
  %5 = load ptr, ptr %3, align 8, !tbaa !19
  %6 = ptrtoint ptr %5 to i64
  %7 = load i32, ptr %4, align 4, !tbaa !17
  %8 = sext i32 %7 to i64
  %9 = xor i64 %6, %8
  %10 = inttoptr i64 %9 to ptr
  ret ptr %10
}

; Function Attrs: inlinehint nounwind uwtable
define internal i32 @Kit_GraphIsComplement(ptr noundef %0) #2 {
  %2 = alloca ptr, align 8
  store ptr %0, ptr %2, align 8, !tbaa !8
  %3 = load ptr, ptr %2, align 8, !tbaa !8
  %4 = getelementptr inbounds nuw %struct.Kit_Graph_t_, ptr %3, i32 0, i32 5
  %5 = load i32, ptr %4, align 8
  %6 = and i32 %5, 1
  ret i32 %6
}

; Function Attrs: nounwind uwtable
define ptr @Lpk_MapPrimeInternal(ptr noundef %0, ptr noundef %1) #0 {
  %3 = alloca ptr, align 8
  %4 = alloca ptr, align 8
  %5 = alloca ptr, align 8
  %6 = alloca ptr, align 8
  %7 = alloca ptr, align 8
  %8 = alloca ptr, align 8
  %9 = alloca i32, align 4
  %10 = alloca i32, align 4
  store ptr %0, ptr %4, align 8, !tbaa !3
  store ptr %1, ptr %5, align 8, !tbaa !8
  call void @llvm.lifetime.start.p0(i64 8, ptr %6) #4
  store ptr null, ptr %6, align 8, !tbaa !10
  call void @llvm.lifetime.start.p0(i64 8, ptr %7) #4
  call void @llvm.lifetime.start.p0(i64 8, ptr %8) #4
  call void @llvm.lifetime.start.p0(i64 4, ptr %9) #4
  %11 = load ptr, ptr %5, align 8, !tbaa !8
  %12 = call i32 @Kit_GraphIsConst(ptr noundef %11)
  %13 = icmp ne i32 %12, 0
  br i1 %13, label %14, label %17

14:                                               ; preds = %2
  %15 = load ptr, ptr %4, align 8, !tbaa !3
  %16 = call ptr @If_ManConst1(ptr noundef %15)
  store ptr %16, ptr %3, align 8
  store i32 1, ptr %10, align 4
  br label %92

17:                                               ; preds = %2
  %18 = load ptr, ptr %5, align 8, !tbaa !8
  %19 = call i32 @Kit_GraphIsVar(ptr noundef %18)
  %20 = icmp ne i32 %19, 0
  br i1 %20, label %21, label %26

21:                                               ; preds = %17
  %22 = load ptr, ptr %5, align 8, !tbaa !8
  %23 = call ptr @Kit_GraphVar(ptr noundef %22)
  %24 = getelementptr inbounds nuw %struct.Kit_Node_t_, ptr %23, i32 0, i32 2
  %25 = load ptr, ptr %24, align 8, !tbaa !12
  store ptr %25, ptr %3, align 8
  store i32 1, ptr %10, align 4
  br label %92

26:                                               ; preds = %17
  %27 = load ptr, ptr %5, align 8, !tbaa !8
  %28 = getelementptr inbounds nuw %struct.Kit_Graph_t_, ptr %27, i32 0, i32 1
  %29 = load i32, ptr %28, align 4, !tbaa !13
  store i32 %29, ptr %9, align 4, !tbaa !17
  br label %30

30:                                               ; preds = %85, %26
  %31 = load i32, ptr %9, align 4, !tbaa !17
  %32 = load ptr, ptr %5, align 8, !tbaa !8
  %33 = getelementptr inbounds nuw %struct.Kit_Graph_t_, ptr %32, i32 0, i32 2
  %34 = load i32, ptr %33, align 8, !tbaa !18
  %35 = icmp slt i32 %31, %34
  br i1 %35, label %36, label %40

36:                                               ; preds = %30
  %37 = load ptr, ptr %5, align 8, !tbaa !8
  %38 = load i32, ptr %9, align 4, !tbaa !17
  %39 = call ptr @Kit_GraphNode(ptr noundef %37, i32 noundef %38)
  store ptr %39, ptr %6, align 8, !tbaa !10
  br label %40

40:                                               ; preds = %36, %30
  %41 = phi i1 [ false, %30 ], [ true, %36 ]
  br i1 %41, label %42, label %88

42:                                               ; preds = %40
  %43 = load ptr, ptr %5, align 8, !tbaa !8
  %44 = load ptr, ptr %6, align 8, !tbaa !10
  %45 = getelementptr inbounds nuw %struct.Kit_Node_t_, ptr %44, i32 0, i32 0
  %46 = load i32, ptr %45, align 8
  %47 = lshr i32 %46, 1
  %48 = and i32 %47, 1073741823
  %49 = call ptr @Kit_GraphNode(ptr noundef %43, i32 noundef %48)
  %50 = getelementptr inbounds nuw %struct.Kit_Node_t_, ptr %49, i32 0, i32 2
  %51 = load ptr, ptr %50, align 8, !tbaa !12
  store ptr %51, ptr %7, align 8, !tbaa !19
  %52 = load ptr, ptr %5, align 8, !tbaa !8
  %53 = load ptr, ptr %6, align 8, !tbaa !10
  %54 = getelementptr inbounds nuw %struct.Kit_Node_t_, ptr %53, i32 0, i32 1
  %55 = load i32, ptr %54, align 4
  %56 = lshr i32 %55, 1
  %57 = and i32 %56, 1073741823
  %58 = call ptr @Kit_GraphNode(ptr noundef %52, i32 noundef %57)
  %59 = getelementptr inbounds nuw %struct.Kit_Node_t_, ptr %58, i32 0, i32 2
  %60 = load ptr, ptr %59, align 8, !tbaa !12
  store ptr %60, ptr %8, align 8, !tbaa !19
  %61 = load ptr, ptr %4, align 8, !tbaa !3
  %62 = load ptr, ptr %7, align 8, !tbaa !19
  %63 = call ptr @If_Regular(ptr noundef %62)
  %64 = load ptr, ptr %7, align 8, !tbaa !19
  %65 = call i32 @If_IsComplement(ptr noundef %64)
  %66 = load ptr, ptr %6, align 8, !tbaa !10
  %67 = getelementptr inbounds nuw %struct.Kit_Node_t_, ptr %66, i32 0, i32 0
  %68 = load i32, ptr %67, align 8
  %69 = and i32 %68, 1
  %70 = xor i32 %65, %69
  %71 = call ptr @If_NotCond(ptr noundef %63, i32 noundef %70)
  %72 = load ptr, ptr %8, align 8, !tbaa !19
  %73 = call ptr @If_Regular(ptr noundef %72)
  %74 = load ptr, ptr %8, align 8, !tbaa !19
  %75 = call i32 @If_IsComplement(ptr noundef %74)
  %76 = load ptr, ptr %6, align 8, !tbaa !10
  %77 = getelementptr inbounds nuw %struct.Kit_Node_t_, ptr %76, i32 0, i32 1
  %78 = load i32, ptr %77, align 4
  %79 = and i32 %78, 1
  %80 = xor i32 %75, %79
  %81 = call ptr @If_NotCond(ptr noundef %73, i32 noundef %80)
  %82 = call ptr @If_ManCreateAnd(ptr noundef %61, ptr noundef %71, ptr noundef %81)
  %83 = load ptr, ptr %6, align 8, !tbaa !10
  %84 = getelementptr inbounds nuw %struct.Kit_Node_t_, ptr %83, i32 0, i32 2
  store ptr %82, ptr %84, align 8, !tbaa !12
  br label %85

85:                                               ; preds = %42
  %86 = load i32, ptr %9, align 4, !tbaa !17
  %87 = add nsw i32 %86, 1
  store i32 %87, ptr %9, align 4, !tbaa !17
  br label %30, !llvm.loop !21

88:                                               ; preds = %40
  %89 = load ptr, ptr %6, align 8, !tbaa !10
  %90 = getelementptr inbounds nuw %struct.Kit_Node_t_, ptr %89, i32 0, i32 2
  %91 = load ptr, ptr %90, align 8, !tbaa !12
  store ptr %91, ptr %3, align 8
  store i32 1, ptr %10, align 4
  br label %92

92:                                               ; preds = %88, %21, %14
  call void @llvm.lifetime.end.p0(i64 4, ptr %9) #4
  call void @llvm.lifetime.end.p0(i64 8, ptr %8) #4
  call void @llvm.lifetime.end.p0(i64 8, ptr %7) #4
  call void @llvm.lifetime.end.p0(i64 8, ptr %6) #4
  %93 = load ptr, ptr %3, align 8
  ret ptr %93
}

; Function Attrs: inlinehint nounwind uwtable
define internal ptr @Kit_GraphNode(ptr noundef %0, i32 noundef %1) #2 {
  %3 = alloca ptr, align 8
  %4 = alloca i32, align 4
  store ptr %0, ptr %3, align 8, !tbaa !8
  store i32 %1, ptr %4, align 4, !tbaa !17
  %5 = load ptr, ptr %3, align 8, !tbaa !8
  %6 = getelementptr inbounds nuw %struct.Kit_Graph_t_, ptr %5, i32 0, i32 4
  %7 = load ptr, ptr %6, align 8, !tbaa !40
  %8 = load i32, ptr %4, align 4, !tbaa !17
  %9 = sext i32 %8 to i64
  %10 = getelementptr inbounds %struct.Kit_Node_t_, ptr %7, i64 %9
  ret ptr %10
}

; Function Attrs: nounwind uwtable
define ptr @Lpk_MapPrime(ptr noundef %0, ptr noundef %1, i32 noundef %2, ptr noundef %3) #0 {
  %5 = alloca ptr, align 8
  %6 = alloca ptr, align 8
  %7 = alloca ptr, align 8
  %8 = alloca i32, align 4
  %9 = alloca ptr, align 8
  %10 = alloca ptr, align 8
  %11 = alloca ptr, align 8
  %12 = alloca ptr, align 8
  %13 = alloca i32, align 4
  %14 = alloca i32, align 4
  store ptr %0, ptr %6, align 8, !tbaa !41
  store ptr %1, ptr %7, align 8, !tbaa !43
  store i32 %2, ptr %8, align 4, !tbaa !17
  store ptr %3, ptr %9, align 8, !tbaa !45
  call void @llvm.lifetime.start.p0(i64 8, ptr %10) #4
  call void @llvm.lifetime.start.p0(i64 8, ptr %11) #4
  call void @llvm.lifetime.start.p0(i64 8, ptr %12) #4
  call void @llvm.lifetime.start.p0(i64 4, ptr %13) #4
  %15 = load ptr, ptr %7, align 8, !tbaa !43
  %16 = load i32, ptr %8, align 4, !tbaa !17
  %17 = load ptr, ptr %6, align 8, !tbaa !41
  %18 = getelementptr inbounds nuw %struct.Lpk_Man_t_, ptr %17, i32 0, i32 11
  %19 = load ptr, ptr %18, align 8, !tbaa !47
  %20 = call ptr @Kit_TruthToGraph(ptr noundef %15, i32 noundef %16, ptr noundef %19)
  store ptr %20, ptr %10, align 8, !tbaa !8
  %21 = load ptr, ptr %10, align 8, !tbaa !8
  %22 = icmp eq ptr %21, null
  br i1 %22, label %23, label %24

23:                                               ; preds = %4
  store ptr null, ptr %5, align 8
  store i32 1, ptr %14, align 4
  br label %60

24:                                               ; preds = %4
  store i32 0, ptr %13, align 4, !tbaa !17
  br label %25

25:                                               ; preds = %45, %24
  %26 = load i32, ptr %13, align 4, !tbaa !17
  %27 = load ptr, ptr %10, align 8, !tbaa !8
  %28 = getelementptr inbounds nuw %struct.Kit_Graph_t_, ptr %27, i32 0, i32 1
  %29 = load i32, ptr %28, align 4, !tbaa !13
  %30 = icmp slt i32 %26, %29
  br i1 %30, label %31, label %35

31:                                               ; preds = %25
  %32 = load ptr, ptr %10, align 8, !tbaa !8
  %33 = load i32, ptr %13, align 4, !tbaa !17
  %34 = call ptr @Kit_GraphNode(ptr noundef %32, i32 noundef %33)
  store ptr %34, ptr %11, align 8, !tbaa !10
  br label %35

35:                                               ; preds = %31, %25
  %36 = phi i1 [ false, %25 ], [ true, %31 ]
  br i1 %36, label %37, label %48

37:                                               ; preds = %35
  %38 = load ptr, ptr %9, align 8, !tbaa !45
  %39 = load i32, ptr %13, align 4, !tbaa !17
  %40 = sext i32 %39 to i64
  %41 = getelementptr inbounds ptr, ptr %38, i64 %40
  %42 = load ptr, ptr %41, align 8, !tbaa !19
  %43 = load ptr, ptr %11, align 8, !tbaa !10
  %44 = getelementptr inbounds nuw %struct.Kit_Node_t_, ptr %43, i32 0, i32 2
  store ptr %42, ptr %44, align 8, !tbaa !12
  br label %45

45:                                               ; preds = %37
  %46 = load i32, ptr %13, align 4, !tbaa !17
  %47 = add nsw i32 %46, 1
  store i32 %47, ptr %13, align 4, !tbaa !17
  br label %25, !llvm.loop !55

48:                                               ; preds = %35
  %49 = load ptr, ptr %6, align 8, !tbaa !41
  %50 = getelementptr inbounds nuw %struct.Lpk_Man_t_, ptr %49, i32 0, i32 10
  %51 = load ptr, ptr %50, align 8, !tbaa !56
  %52 = load ptr, ptr %10, align 8, !tbaa !8
  %53 = call ptr @Lpk_MapPrimeInternal(ptr noundef %51, ptr noundef %52)
  store ptr %53, ptr %12, align 8, !tbaa !19
  %54 = load ptr, ptr %12, align 8, !tbaa !19
  %55 = load ptr, ptr %10, align 8, !tbaa !8
  %56 = call i32 @Kit_GraphIsComplement(ptr noundef %55)
  %57 = call ptr @If_NotCond(ptr noundef %54, i32 noundef %56)
  store ptr %57, ptr %12, align 8, !tbaa !19
  %58 = load ptr, ptr %10, align 8, !tbaa !8
  call void @Kit_GraphFree(ptr noundef %58)
  %59 = load ptr, ptr %12, align 8, !tbaa !19
  store ptr %59, ptr %5, align 8
  store i32 1, ptr %14, align 4
  br label %60

60:                                               ; preds = %48, %23
  call void @llvm.lifetime.end.p0(i64 4, ptr %13) #4
  call void @llvm.lifetime.end.p0(i64 8, ptr %12) #4
  call void @llvm.lifetime.end.p0(i64 8, ptr %11) #4
  call void @llvm.lifetime.end.p0(i64 8, ptr %10) #4
  %61 = load ptr, ptr %5, align 8
  ret ptr %61
}