; Function Attrs: nounwind uwtable
define ptr @Lpk_MapPrime(ptr noundef readonly captures(none) %0, ptr noundef %1, i32 noundef %2, ptr noundef readonly captures(none) %3) local_unnamed_addr #0 {
  %5 = getelementptr inbounds nuw i8, ptr %0, i64 8240056
  %6 = load ptr, ptr %5, align 8, !tbaa !17
  %7 = tail call ptr @Kit_TruthToGraph(ptr noundef %1, i32 noundef %2, ptr noundef %6) #3
  %8 = icmp eq ptr %7, null
  br i1 %8, label %80, label %.preheader

.preheader:                                       ; preds = %4
  %9 = getelementptr inbounds nuw i8, ptr %7, i64 4
  %10 = load i32, ptr %9, align 4, !tbaa !11
  %11 = icmp sgt i32 %10, 0
  br i1 %11, label %.lr.ph, label %.critedge

.lr.ph:                                           ; preds = %.preheader
  %12 = getelementptr i8, ptr %7, i64 16
  br label %13

13:                                               ; preds = %.lr.ph, %13
  %indvars.iv = phi i64 [ 0, %.lr.ph ], [ %indvars.iv.next, %13 ]
  %.val = load ptr, ptr %12, align 8, !tbaa !13
  %14 = getelementptr inbounds nuw ptr, ptr %3, i64 %indvars.iv
  %15 = load ptr, ptr %14, align 8, !tbaa !28
  %16 = getelementptr inbounds nuw %struct.Kit_Node_t_, ptr %.val, i64 %indvars.iv, i32 2
  store ptr %15, ptr %16, align 8, !tbaa !14
  %indvars.iv.next = add nuw nsw i64 %indvars.iv, 1
  %17 = load i32, ptr %9, align 4, !tbaa !11
  %18 = sext i32 %17 to i64
  %19 = icmp slt i64 %indvars.iv.next, %18
  br i1 %19, label %13, label %.critedge, !llvm.loop !30

.critedge:                                        ; preds = %13, %.preheader
  %.lcssa21 = phi i32 [ %10, %.preheader ], [ %17, %13 ]
  %20 = getelementptr inbounds nuw i8, ptr %0, i64 8240048
  %21 = load ptr, ptr %20, align 8, !tbaa !31
  %.val.i = load i32, ptr %7, align 8, !tbaa !3
  %.not.i = icmp eq i32 %.val.i, 0
  br i1 %.not.i, label %24, label %22

22:                                               ; preds = %.critedge
  %23 = getelementptr i8, ptr %21, i64 16
  br label %Lpk_MapPrimeInternal.exit

24:                                               ; preds = %.critedge
  %25 = getelementptr i8, ptr %7, i64 24
  %.val28.i = load i32, ptr %25, align 8
  %26 = lshr i32 %.val28.i, 1
  %27 = and i32 %26, 1073741823
  %.not34.i = icmp ult i32 %27, %.lcssa21
  br i1 %.not34.i, label %33, label %.preheader.i

.preheader.i:                                     ; preds = %24
  %28 = getelementptr inbounds nuw i8, ptr %7, i64 8
  %29 = load i32, ptr %28, align 8, !tbaa !12
  %30 = icmp slt i32 %.lcssa21, %29
  br i1 %30, label %.lr.ph.i, label %.critedge.i

.lr.ph.i:                                         ; preds = %.preheader.i
  %31 = getelementptr i8, ptr %7, i64 16
  %32 = zext nneg i32 %.lcssa21 to i64
  br label %37

33:                                               ; preds = %24
  %34 = getelementptr i8, ptr %7, i64 16
  %.val32.i = load ptr, ptr %34, align 8, !tbaa !13
  %35 = zext nneg i32 %27 to i64
  %36 = getelementptr inbounds nuw %struct.Kit_Node_t_, ptr %.val32.i, i64 %35, i32 2
  br label %Lpk_MapPrimeInternal.exit

37:                                               ; preds = %37, %.lr.ph.i
  %indvars.iv.i = phi i64 [ %32, %.lr.ph.i ], [ %indvars.iv.next.i, %37 ]
  %.val29.i = load ptr, ptr %31, align 8, !tbaa !13
  %38 = getelementptr inbounds nuw %struct.Kit_Node_t_, ptr %.val29.i, i64 %indvars.iv.i
  %39 = load i32, ptr %38, align 8
  %40 = lshr i32 %39, 1
  %41 = and i32 %40, 1073741823
  %42 = zext nneg i32 %41 to i64
  %43 = getelementptr inbounds nuw %struct.Kit_Node_t_, ptr %.val29.i, i64 %42, i32 2
  %44 = load ptr, ptr %43, align 8, !tbaa !14
  %45 = getelementptr inbounds nuw i8, ptr %38, i64 4
  %46 = load i32, ptr %45, align 4
  %47 = lshr i32 %46, 1
  %48 = and i32 %47, 1073741823
  %49 = zext nneg i32 %48 to i64
  %50 = getelementptr inbounds nuw %struct.Kit_Node_t_, ptr %.val29.i, i64 %49, i32 2
  %51 = load ptr, ptr %50, align 8, !tbaa !14
  %52 = ptrtoint ptr %44 to i64
  %53 = and i64 %52, -2
  %54 = trunc i64 %52 to i32
  %55 = xor i32 %39, %54
  %56 = and i32 %55, 1
  %57 = zext nneg i32 %56 to i64
  %58 = or disjoint i64 %53, %57
  %59 = inttoptr i64 %58 to ptr
  %60 = ptrtoint ptr %51 to i64
  %61 = and i64 %60, -2
  %62 = trunc i64 %60 to i32
  %63 = xor i32 %46, %62
  %64 = and i32 %63, 1
  %65 = zext nneg i32 %64 to i64
  %66 = or disjoint i64 %61, %65
  %67 = inttoptr i64 %66 to ptr
  %68 = tail call ptr @If_ManCreateAnd(ptr noundef %21, ptr noundef %59, ptr noundef %67) #3
  %69 = getelementptr inbounds nuw i8, ptr %38, i64 8
  store ptr %68, ptr %69, align 8, !tbaa !14
  %indvars.iv.next.i = add nuw nsw i64 %indvars.iv.i, 1
  %70 = load i32, ptr %28, align 8, !tbaa !12
  %71 = sext i32 %70 to i64
  %72 = icmp slt i64 %indvars.iv.next.i, %71
  br i1 %72, label %37, label %.critedge.i, !llvm.loop !15

.critedge.i:                                      ; preds = %37, %.preheader.i
  %.024.lcssa.i = phi ptr [ null, %.preheader.i ], [ %38, %37 ]
  %73 = getelementptr inbounds nuw i8, ptr %.024.lcssa.i, i64 8
  br label %Lpk_MapPrimeInternal.exit

Lpk_MapPrimeInternal.exit:                        ; preds = %22, %33, %.critedge.i
  %.023.in.i = phi ptr [ %23, %22 ], [ %36, %33 ], [ %73, %.critedge.i ]
  %.023.i = load ptr, ptr %.023.in.i, align 8, !tbaa !14
  %74 = getelementptr i8, ptr %7, i64 24
  %.val20 = load i32, ptr %74, align 8
  %75 = and i32 %.val20, 1
  %76 = ptrtoint ptr %.023.i to i64
  %77 = zext nneg i32 %75 to i64
  %78 = xor i64 %77, %76
  %79 = inttoptr i64 %78 to ptr
  tail call void @Kit_GraphFree(ptr noundef nonnull %7) #3
  br label %80

80:                                               ; preds = %4, %Lpk_MapPrimeInternal.exit
  %.018 = phi ptr [ %79, %Lpk_MapPrimeInternal.exit ], [ null, %4 ]
  ret ptr %.018
}